target datalayout = "e-m:e-p270:32:32-p271:32:32-p272:64:64-i64:64-i128:128-f80:128-n8:16:32:64-S128"
target triple = "x86_64-pc-linux-gnu"

@Truth6 = internal global [6 x i64] [i64 -6148914691236517206, i64 -3689348814741910324, i64 -1085102592571150096, i64 -71777214294589696, i64 -281470681808896, i64 -4294967296], align 16

; Function Attrs: nounwind uwtable
define i32 @If_CluCheckDecOutU(i64 noundef %0, i32 noundef %1) #0 {
  %3 = alloca i32, align 4
  %4 = alloca i64, align 8
  %5 = alloca i32, align 4
  %6 = alloca i32, align 4
  %7 = alloca i32, align 4
  store i64 %0, ptr %4, align 8, !tbaa !79
  store i32 %1, ptr %5, align 4, !tbaa !3
  call void @llvm.lifetime.start.p0(i64 4, ptr %6) #11
  store i32 0, ptr %6, align 4, !tbaa !3
  br label %8

8:                                                ; preds = %33, %2
  %9 = load i32, ptr %6, align 4, !tbaa !3
  %10 = load i32, ptr %5, align 4, !tbaa !3
  %11 = icmp slt i32 %9, %10
  br i1 %11, label %12, label %36

12:                                               ; preds = %8
  %13 = load i64, ptr %4, align 8, !tbaa !79
  %14 = load i32, ptr %6, align 4, !tbaa !3
  %15 = sext i32 %14 to i64
  %16 = getelementptr inbounds [6 x i64], ptr @Truth6, i64 0, i64 %15
  %17 = load i64, ptr %16, align 8, !tbaa !79
  %18 = xor i64 %17, -1
  %19 = and i64 %13, %18
  %20 = icmp eq i64 %19, 0
  br i1 %20, label %31, label %21

21:                                               ; preds = %12
  %22 = load i64, ptr %4, align 8, !tbaa !79
  %23 = xor i64 %22, -1
  %24 = load i32, ptr %6, align 4, !tbaa !3
  %25 = sext i32 %24 to i64
  %26 = getelementptr inbounds [6 x i64], ptr @Truth6, i64 0, i64 %25
  %27 = load i64, ptr %26, align 8, !tbaa !79
  %28 = xor i64 %27, -1
  %29 = and i64 %23, %28
  %30 = icmp eq i64 %29, 0
  br i1 %30, label %31, label %32

31:                                               ; preds = %21, %12
  store i32 1, ptr %3, align 4
  store i32 1, ptr %7, align 4
  br label %37

32:                                               ; preds = %21
  br label %33

33:                                               ; preds = %32
  %34 = load i32, ptr %6, align 4, !tbaa !3
  %35 = add nsw i32 %34, 1
  store i32 %35, ptr %6, align 4, !tbaa !3
  br label %8, !llvm.loop !185

36:                                               ; preds = %8
  store i32 0, ptr %3, align 4
  store i32 1, ptr %7, align 4
  br label %37

37:                                               ; preds = %36, %31
  call void @llvm.lifetime.end.p0(i64 4, ptr %6) #11
  %38 = load i32, ptr %3, align 4
  ret i32 %38
}