; Function Attrs: nofree norecurse nosync nounwind memory(none) uwtable
define range(i32 0, 2) i32 @If_CluCheckDecOutU(i64 noundef %0, i32 noundef %1) local_unnamed_addr #0 {
  %3 = icmp sgt i32 %1, 0
  br i1 %3, label %.lr.ph.preheader, label %._crit_edge

.lr.ph.preheader:                                 ; preds = %2
  %wide.trip.count = zext nneg i32 %1 to i64
  br label %.lr.ph

4:                                                ; preds = %.lr.ph
  %indvars.iv.next = add nuw nsw i64 %indvars.iv, 1
  %exitcond.not = icmp eq i64 %indvars.iv.next, %wide.trip.count
  br i1 %exitcond.not, label %._crit_edge, label %.lr.ph, !llvm.loop !189

.lr.ph:                                           ; preds = %.lr.ph.preheader, %4
  %indvars.iv = phi i64 [ 0, %.lr.ph.preheader ], [ %indvars.iv.next, %4 ]
  %5 = getelementptr inbounds nuw [6 x i64], ptr @s_Truths6, i64 0, i64 %indvars.iv
  %6 = load i64, ptr %5, align 8, !tbaa !16
  %7 = xor i64 %6, -1
  %8 = and i64 %0, %7
  %9 = icmp eq i64 %8, 0
  %10 = or i64 %6, %0
  %11 = icmp eq i64 %10, -1
  %or.cond = or i1 %9, %11
  br i1 %or.cond, label %._crit_edge, label %4

._crit_edge:                                      ; preds = %.lr.ph, %4, %2
  %.08 = phi i32 [ 0, %2 ], [ 0, %4 ], [ 1, %.lr.ph ]
  ret i32 %.08
}